#include <math.h>
#include <stdio.h>
#include <stdlib.h>
#include <string.h>

int main()
{
	int n,i,j,a[7],b[7],c=0;
	scanf("%d",&n);
	a[0]=0;
	a[1]=n/10000;
	a[2]=(n-a[1]*10000)/1000;
	a[3]=(n-a[1]*10000-a[2]*1000)/100;
	a[4]=(n-a[1]*10000-a[2]*1000-100*a[3])/10;
	a[5]=n-a[1]*10000-a[2]*1000-100*a[3]-10*a[4];
	for(j=0;j<=5;j++)
	{
		if(a[j]==0)
		{
			if(a[j-1]==0)
			{
				continue;
			}
			else
			{
			    b[5-j]=a[j];
			}
		}
		else
		{
			 b[5-j]=a[j];
			 c+=1;
		}
	}
	for(i=0;i<c;i++)
	{
		printf("%d",b[i]);
	}
	return 0;
}



